target datalayout = "e-m:e-p270:32:32-p271:32:32-p272:64:64-i64:64-i128:128-f80:128-n8:16:32:64-S128"
target triple = "x86_64-pc-linux-gnu"

%struct.H5D_earray_ctx_ud_t = type { ptr, i32 }
%struct.H5D_earray_ctx_t = type { i64, i64 }

@H5D_init_g = external global i8, align 1
@H5_libterm_g = external global i8, align 1
@.str.2 = private unnamed_addr constant [103 x i8] c"generated/home/dtcxzyw/WorkSpace/Projects/compilers/llvm-opt-benchmark/bench/hdf5/hdf5/src/H5Dearray.c\00", align 1
@__func__.H5D__earray_crt_context = private unnamed_addr constant [24 x i8] c"H5D__earray_crt_context\00", align 1
@H5E_DATASET_g = external global i64, align 8
@H5E_CANTALLOC_g = external global i64, align 8
@.str.3 = private unnamed_addr constant [56 x i8] c"can't allocate extensible array client callback context\00", align 1
@H5_H5D_earray_ctx_t_reg_free_list = internal global { i8, [3 x i8], i32, i32, [4 x i8], ptr, i64, ptr } { i8 0, [3 x i8] zeroinitializer, i32 0, i32 0, [4 x i8] zeroinitializer, ptr @.str.4, i64 16, ptr null }, align 8

; Function Attrs: inlinehint nounwind uwtable
define internal i32 @H5VM_log2_gen(i64 noundef %0) #4 {
  %2 = alloca i64, align 8
  %3 = alloca i32, align 4
  %4 = alloca i32, align 4
  %5 = alloca i32, align 4
  %6 = alloca i32, align 4
  store i64 %0, ptr %2, align 8, !tbaa !10
  call void @llvm.lifetime.start.p0(i64 4, ptr %3) #8
  call void @llvm.lifetime.start.p0(i64 4, ptr %4) #8
  call void @llvm.lifetime.start.p0(i64 4, ptr %5) #8
  call void @llvm.lifetime.start.p0(i64 4, ptr %6) #8
  %7 = load i64, ptr %2, align 8, !tbaa !10
  %8 = lshr i64 %7, 32
  %9 = trunc i64 %8 to i32
  store i32 %9, ptr %6, align 4, !tbaa !12
  %10 = icmp ne i32 %9, 0
  br i1 %10, label %11, label %61

11:                                               ; preds = %1
  %12 = load i64, ptr %2, align 8, !tbaa !10
  %13 = lshr i64 %12, 48
  %14 = trunc i64 %13 to i32
  store i32 %14, ptr %5, align 4, !tbaa !12
  %15 = icmp ne i32 %14, 0
  br i1 %15, label %16, label %38

16:                                               ; preds = %11
  %17 = load i64, ptr %2, align 8, !tbaa !10
  %18 = lshr i64 %17, 56
  %19 = trunc i64 %18 to i32
  store i32 %19, ptr %4, align 4, !tbaa !12
  %20 = icmp ne i32 %19, 0
  br i1 %20, label %21, label %28

21:                                               ; preds = %16
  %22 = load i32, ptr %4, align 4, !tbaa !12
  %23 = zext i32 %22 to i64
  %24 = getelementptr inbounds nuw [256 x i8], ptr @LogTable256, i64 0, i64 %23
  %25 = load i8, ptr %24, align 1, !tbaa !26
  %26 = zext i8 %25 to i32
  %27 = add i32 56, %26
  br label %36

28:                                               ; preds = %16
  %29 = load i32, ptr %5, align 4, !tbaa !12
  %30 = and i32 %29, 255
  %31 = zext i32 %30 to i64
  %32 = getelementptr inbounds nuw [256 x i8], ptr @LogTable256, i64 0, i64 %31
  %33 = load i8, ptr %32, align 1, !tbaa !26
  %34 = zext i8 %33 to i32
  %35 = add i32 48, %34
  br label %36

36:                                               ; preds = %28, %21
  %37 = phi i32 [ %27, %21 ], [ %35, %28 ]
  store i32 %37, ptr %3, align 4, !tbaa !12
  br label %60

38:                                               ; preds = %11
  %39 = load i64, ptr %2, align 8, !tbaa !10
  %40 = lshr i64 %39, 40
  %41 = trunc i64 %40 to i32
  store i32 %41, ptr %4, align 4, !tbaa !12
  %42 = icmp ne i32 %41, 0
  br i1 %42, label %43, label %50

43:                                               ; preds = %38
  %44 = load i32, ptr %4, align 4, !tbaa !12
  %45 = zext i32 %44 to i64
  %46 = getelementptr inbounds nuw [256 x i8], ptr @LogTable256, i64 0, i64 %45
  %47 = load i8, ptr %46, align 1, !tbaa !26
  %48 = zext i8 %47 to i32
  %49 = add i32 40, %48
  br label %58

50:                                               ; preds = %38
  %51 = load i32, ptr %6, align 4, !tbaa !12
  %52 = and i32 %51, 255
  %53 = zext i32 %52 to i64
  %54 = getelementptr inbounds nuw [256 x i8], ptr @LogTable256, i64 0, i64 %53
  %55 = load i8, ptr %54, align 1, !tbaa !26
  %56 = zext i8 %55 to i32
  %57 = add i32 32, %56
  br label %58

58:                                               ; preds = %50, %43
  %59 = phi i32 [ %49, %43 ], [ %57, %50 ]
  store i32 %59, ptr %3, align 4, !tbaa !12
  br label %60

60:                                               ; preds = %58, %36
  br label %110

61:                                               ; preds = %1
  %62 = load i64, ptr %2, align 8, !tbaa !10
  %63 = lshr i64 %62, 16
  %64 = trunc i64 %63 to i32
  store i32 %64, ptr %5, align 4, !tbaa !12
  %65 = icmp ne i32 %64, 0
  br i1 %65, label %66, label %88

66:                                               ; preds = %61
  %67 = load i64, ptr %2, align 8, !tbaa !10
  %68 = lshr i64 %67, 24
  %69 = trunc i64 %68 to i32
  store i32 %69, ptr %4, align 4, !tbaa !12
  %70 = icmp ne i32 %69, 0
  br i1 %70, label %71, label %78

71:                                               ; preds = %66
  %72 = load i32, ptr %4, align 4, !tbaa !12
  %73 = zext i32 %72 to i64
  %74 = getelementptr inbounds nuw [256 x i8], ptr @LogTable256, i64 0, i64 %73
  %75 = load i8, ptr %74, align 1, !tbaa !26
  %76 = zext i8 %75 to i32
  %77 = add i32 24, %76
  br label %86

78:                                               ; preds = %66
  %79 = load i32, ptr %5, align 4, !tbaa !12
  %80 = and i32 %79, 255
  %81 = zext i32 %80 to i64
  %82 = getelementptr inbounds nuw [256 x i8], ptr @LogTable256, i64 0, i64 %81
  %83 = load i8, ptr %82, align 1, !tbaa !26
  %84 = zext i8 %83 to i32
  %85 = add i32 16, %84
  br label %86

86:                                               ; preds = %78, %71
  %87 = phi i32 [ %77, %71 ], [ %85, %78 ]
  store i32 %87, ptr %3, align 4, !tbaa !12
  br label %109

88:                                               ; preds = %61
  %89 = load i64, ptr %2, align 8, !tbaa !10
  %90 = lshr i64 %89, 8
  %91 = trunc i64 %90 to i32
  store i32 %91, ptr %4, align 4, !tbaa !12
  %92 = icmp ne i32 %91, 0
  br i1 %92, label %93, label %100

93:                                               ; preds = %88
  %94 = load i32, ptr %4, align 4, !tbaa !12
  %95 = zext i32 %94 to i64
  %96 = getelementptr inbounds nuw [256 x i8], ptr @LogTable256, i64 0, i64 %95
  %97 = load i8, ptr %96, align 1, !tbaa !26
  %98 = zext i8 %97 to i32
  %99 = add i32 8, %98
  br label %107

100:                                              ; preds = %88
  %101 = load i64, ptr %2, align 8, !tbaa !10
  %102 = trunc i64 %101 to i8
  %103 = zext i8 %102 to i64
  %104 = getelementptr inbounds nuw [256 x i8], ptr @LogTable256, i64 0, i64 %103
  %105 = load i8, ptr %104, align 1, !tbaa !26
  %106 = zext i8 %105 to i32
  br label %107

107:                                              ; preds = %100, %93
  %108 = phi i32 [ %99, %93 ], [ %106, %100 ]
  store i32 %108, ptr %3, align 4, !tbaa !12
  br label %109

109:                                              ; preds = %107, %86
  br label %110

110:                                              ; preds = %109, %60
  %111 = load i32, ptr %3, align 4, !tbaa !12
  call void @llvm.lifetime.end.p0(i64 4, ptr %6) #8
  call void @llvm.lifetime.end.p0(i64 4, ptr %5) #8
  call void @llvm.lifetime.end.p0(i64 4, ptr %4) #8
  call void @llvm.lifetime.end.p0(i64 4, ptr %3) #8
  ret i32 %111
}

; Function Attrs: nounwind uwtable
define internal ptr @H5D__earray_crt_context(ptr noundef %0) #0 {
  %2 = alloca ptr, align 8
  %3 = alloca ptr, align 8
  %4 = alloca ptr, align 8
  %5 = alloca ptr, align 8
  %6 = alloca i8, align 1
  store ptr %0, ptr %2, align 8, !tbaa !80
  call void @llvm.lifetime.start.p0(i64 8, ptr %3) #8
  call void @llvm.lifetime.start.p0(i64 8, ptr %4) #8
  %7 = load ptr, ptr %2, align 8, !tbaa !80
  store ptr %7, ptr %4, align 8, !tbaa !105
  call void @llvm.lifetime.start.p0(i64 8, ptr %5) #8
  store ptr null, ptr %5, align 8, !tbaa !80
  call void @llvm.lifetime.start.p0(i64 1, ptr %6) #8
  store i8 0, ptr %6, align 1, !tbaa !14
  %8 = load i8, ptr @H5D_init_g, align 1, !tbaa !14, !range !16, !noundef !17
  %9 = trunc i8 %8 to i1
  br i1 %9, label %14, label %10

10:                                               ; preds = %1
  %11 = load i8, ptr @H5_libterm_g, align 1, !tbaa !14, !range !16, !noundef !17
  %12 = trunc i8 %11 to i1
  %13 = xor i1 %12, true
  br label %14

14:                                               ; preds = %10, %1
  %15 = phi i1 [ true, %1 ], [ %13, %10 ]
  %16 = xor i1 %15, true
  %17 = xor i1 %16, true
  %18 = zext i1 %17 to i32
  %19 = sext i32 %18 to i64
  %20 = call i64 @llvm.expect.i64(i64 %19, i64 1)
  %21 = icmp ne i64 %20, 0
  br i1 %21, label %22, label %73

22:                                               ; preds = %14
  %23 = call noalias ptr @H5FL_reg_malloc(ptr noundef @H5_H5D_earray_ctx_t_reg_free_list)
  store ptr %23, ptr %3, align 8, !tbaa !107
  %24 = icmp eq ptr null, %23
  br i1 %24, label %25, label %44

25:                                               ; preds = %22
  br label %26

26:                                               ; preds = %25
  br label %27

27:                                               ; preds = %26
  br label %28

28:                                               ; preds = %27
  %29 = load i64, ptr @H5E_DATASET_g, align 8, !tbaa !10
  %30 = load i64, ptr @H5E_CANTALLOC_g, align 8, !tbaa !10
  %31 = call i32 (ptr, ptr, i32, i64, i64, ptr, ...) @H5E_printf_stack(ptr noundef @.str.2, ptr noundef @__func__.H5D__earray_crt_context, i32 noundef 234, i64 noundef %29, i64 noundef %30, ptr noundef @.str.3)
  br label %32

32:                                               ; preds = %28
  br label %33

33:                                               ; preds = %32
  store i8 1, ptr %6, align 1, !tbaa !14
  %34 = load i8, ptr %6, align 1, !tbaa !14, !range !16, !noundef !17
  %35 = trunc i8 %34 to i1
  %36 = zext i1 %35 to i8
  store i8 %36, ptr %6, align 1, !tbaa !14
  br label %37

37:                                               ; preds = %33
  br label %38

38:                                               ; preds = %37
  br label %39

39:                                               ; preds = %38
  store ptr null, ptr %5, align 8, !tbaa !80
  br label %72

40:                                               ; No predecessors!
  br label %41

41:                                               ; preds = %40
  br label %42

42:                                               ; preds = %41
  br label %43

43:                                               ; preds = %42
  br label %44

44:                                               ; preds = %43, %22
  %45 = load ptr, ptr %4, align 8, !tbaa !105
  %46 = getelementptr inbounds nuw %struct.H5D_earray_ctx_ud_t, ptr %45, i32 0, i32 0
  %47 = load ptr, ptr %46, align 8, !tbaa !45
  %48 = call zeroext i8 @H5F_sizeof_addr(ptr noundef %47)
  %49 = zext i8 %48 to i64
  %50 = load ptr, ptr %3, align 8, !tbaa !107
  %51 = getelementptr inbounds nuw %struct.H5D_earray_ctx_t, ptr %50, i32 0, i32 0
  store i64 %49, ptr %51, align 8, !tbaa !109
  %52 = load ptr, ptr %4, align 8, !tbaa !105
  %53 = getelementptr inbounds nuw %struct.H5D_earray_ctx_ud_t, ptr %52, i32 0, i32 1
  %54 = load i32, ptr %53, align 8, !tbaa !47
  %55 = zext i32 %54 to i64
  %56 = call i32 @H5VM_log2_gen(i64 noundef %55)
  %57 = add i32 %56, 8
  %58 = udiv i32 %57, 8
  %59 = add i32 1, %58
  %60 = zext i32 %59 to i64
  %61 = load ptr, ptr %3, align 8, !tbaa !107
  %62 = getelementptr inbounds nuw %struct.H5D_earray_ctx_t, ptr %61, i32 0, i32 1
  store i64 %60, ptr %62, align 8, !tbaa !111
  %63 = load ptr, ptr %3, align 8, !tbaa !107
  %64 = getelementptr inbounds nuw %struct.H5D_earray_ctx_t, ptr %63, i32 0, i32 1
  %65 = load i64, ptr %64, align 8, !tbaa !111
  %66 = icmp ugt i64 %65, 8
  br i1 %66, label %67, label %70

67:                                               ; preds = %44
  %68 = load ptr, ptr %3, align 8, !tbaa !107
  %69 = getelementptr inbounds nuw %struct.H5D_earray_ctx_t, ptr %68, i32 0, i32 1
  store i64 8, ptr %69, align 8, !tbaa !111
  br label %70

70:                                               ; preds = %67, %44
  %71 = load ptr, ptr %3, align 8, !tbaa !107
  store ptr %71, ptr %5, align 8, !tbaa !80
  br label %72

72:                                               ; preds = %70, %39
  br label %73

73:                                               ; preds = %72, %14
  %74 = load ptr, ptr %5, align 8, !tbaa !80
  call void @llvm.lifetime.end.p0(i64 1, ptr %6) #8
  call void @llvm.lifetime.end.p0(i64 8, ptr %5) #8
  call void @llvm.lifetime.end.p0(i64 8, ptr %4) #8
  call void @llvm.lifetime.end.p0(i64 8, ptr %3) #8
  ret ptr %74
}