; Function Attrs: nounwind uwtable
define internal noalias ptr @H5D__earray_crt_context(ptr noundef readonly captures(none) %0) #0 {
  %2 = load i8, ptr @H5D_init_g, align 1, !tbaa !3, !range !7, !noundef !8
  %3 = trunc nuw i8 %2 to i1
  %4 = load i8, ptr @H5_libterm_g, align 1, !range !7
  %5 = trunc nuw i8 %4 to i1
  %6 = xor i1 %5, true
  %7 = select i1 %3, i1 true, i1 %6
  br i1 %7, label %8, label %51, !prof !9

8:                                                ; preds = %1
  %9 = tail call noalias ptr @H5FL_reg_malloc(ptr noundef nonnull @H5_H5D_earray_ctx_t_reg_free_list) #11
  %10 = icmp eq ptr %9, null
  br i1 %10, label %11, label %15

11:                                               ; preds = %8
  %12 = load i64, ptr @H5E_DATASET_g, align 8, !tbaa !10
  %13 = load i64, ptr @H5E_CANTALLOC_g, align 8, !tbaa !10
  %14 = tail call i32 (ptr, ptr, i32, i64, i64, ptr, ...) @H5E_printf_stack(ptr noundef nonnull @.str.2, ptr noundef nonnull @__func__.H5D__earray_crt_context, i32 noundef 234, i64 noundef %12, i64 noundef %13, ptr noundef nonnull @.str.3) #11
  br label %51

15:                                               ; preds = %8
  %16 = load ptr, ptr %0, align 8, !tbaa !41
  %17 = tail call zeroext i8 @H5F_sizeof_addr(ptr noundef %16) #11
  %18 = zext i8 %17 to i64
  store i64 %18, ptr %9, align 8, !tbaa !85
  %19 = getelementptr inbounds nuw i8, ptr %0, i64 8
  %20 = load i32, ptr %19, align 8, !tbaa !43
  %21 = zext i32 %20 to i64
  %22 = lshr i64 %21, 16
  %.not.i = icmp ult i32 %20, 65536
  br i1 %.not.i, label %35, label %23

23:                                               ; preds = %15
  %.not24.i = icmp ult i32 %20, 16777216
  br i1 %.not24.i, label %30, label %24

24:                                               ; preds = %23
  %25 = lshr i64 %21, 24
  %26 = getelementptr inbounds nuw [256 x i8], ptr @LogTable256, i64 0, i64 %25
  %27 = load i8, ptr %26, align 1, !tbaa !21
  %28 = zext i8 %27 to i32
  %29 = add nuw nsw i32 %28, 24
  br label %H5VM_log2_gen.exit

30:                                               ; preds = %23
  %31 = getelementptr inbounds nuw [256 x i8], ptr @LogTable256, i64 0, i64 %22
  %32 = load i8, ptr %31, align 1, !tbaa !21
  %33 = zext i8 %32 to i32
  %34 = add nuw nsw i32 %33, 16
  br label %H5VM_log2_gen.exit

35:                                               ; preds = %15
  %.not23.i = icmp samesign ult i32 %20, 256
  br i1 %.not23.i, label %42, label %36

36:                                               ; preds = %35
  %37 = lshr i64 %21, 8
  %38 = getelementptr inbounds nuw [256 x i8], ptr @LogTable256, i64 0, i64 %37
  %39 = load i8, ptr %38, align 1, !tbaa !21
  %40 = zext i8 %39 to i32
  %41 = add nuw nsw i32 %40, 8
  br label %H5VM_log2_gen.exit

42:                                               ; preds = %35
  %43 = getelementptr inbounds nuw [256 x i8], ptr @LogTable256, i64 0, i64 %21
  %44 = load i8, ptr %43, align 1, !tbaa !21
  %45 = zext i8 %44 to i32
  br label %H5VM_log2_gen.exit

H5VM_log2_gen.exit:                               ; preds = %24, %30, %36, %42
  %.0.i = phi i32 [ %29, %24 ], [ %34, %30 ], [ %41, %36 ], [ %45, %42 ]
  %46 = add nuw nsw i32 %.0.i, 8
  %47 = lshr i32 %46, 3
  %48 = add nuw nsw i32 %47, 1
  %49 = getelementptr inbounds nuw i8, ptr %9, i64 8
  %50 = icmp samesign ugt i32 %.0.i, 55
  %narrow = select i1 %50, i32 8, i32 %48
  %spec.select = zext nneg i32 %narrow to i64
  store i64 %spec.select, ptr %49, align 8, !tbaa !87
  br label %51

51:                                               ; preds = %11, %H5VM_log2_gen.exit, %1
  %.0 = phi ptr [ null, %11 ], [ %9, %H5VM_log2_gen.exit ], [ null, %1 ]
  ret ptr %.0
}